target datalayout = "e-m:e-p270:32:32-p271:32:32-p272:64:64-i64:64-i128:128-f80:128-n8:16:32:64-S128"
target triple = "x86_64-unknown-linux-gnu"

%struct.UHCIInfo = type { ptr, i16, i16, i8, i8, ptr, i8, i8 }
%struct.UHCIPCIDeviceClass = type { %struct.PCIDeviceClass, %struct.UHCIInfo }
%struct.PCIDeviceClass = type { %struct.DeviceClass, ptr, ptr, ptr, ptr, i16, i16, i8, i16, i16, i16, ptr }
%struct.DeviceClass = type { %struct.ObjectClass, [1 x i64], ptr, ptr, ptr, i8, i8, ptr, ptr, ptr, ptr, ptr }
%struct.ObjectClass = type { ptr, ptr, [4 x ptr], [4 x ptr], ptr, ptr }

@.str.2 = private unnamed_addr constant [13 x i8] c"pci-uhci-usb\00", align 1
@.str.3 = private unnamed_addr constant [26 x i8] c"../qemu/hw/usb/hcd-uhci.h\00", align 1
@.str.13 = private unnamed_addr constant [7 x i8] c"device\00", align 1
@.str.14 = private unnamed_addr constant [101 x i8] c"/home/dtcxzyw/WorkSpace/Projects/compilers/llvm-opt-benchmark/bench/qemu/qemu/include/hw/qdev-core.h\00", align 1
@.str.69 = private unnamed_addr constant [11 x i8] c"pci-device\00", align 1
@.str.70 = private unnamed_addr constant [106 x i8] c"/home/dtcxzyw/WorkSpace/Projects/compilers/llvm-opt-benchmark/bench/qemu/qemu/include/hw/pci/pci_device.h\00", align 1
@__func__.PCI_DEVICE_CLASS = private unnamed_addr constant [17 x i8] c"PCI_DEVICE_CLASS\00", align 1
@__func__.DEVICE_CLASS = private unnamed_addr constant [13 x i8] c"DEVICE_CLASS\00", align 1
@__func__.UHCI_CLASS = private unnamed_addr constant [11 x i8] c"UHCI_CLASS\00", align 1

; Function Attrs: nounwind sspstrong uwtable
define internal ptr @UHCI_CLASS(ptr noundef %klass) #0 {
entry:
  %klass.addr = alloca ptr, align 8
  store ptr %klass, ptr %klass.addr, align 8
  %0 = load ptr, ptr %klass.addr, align 8
  %call = call ptr @object_class_dynamic_cast_assert(ptr noundef %0, ptr noundef @.str.2, ptr noundef @.str.3, i32 noundef 78, ptr noundef @__func__.UHCI_CLASS)
  ret ptr %call
}

; Function Attrs: nounwind sspstrong uwtable
define internal ptr @DEVICE_CLASS(ptr noundef %klass) #0 {
entry:
  %klass.addr = alloca ptr, align 8
  store ptr %klass, ptr %klass.addr, align 8
  %0 = load ptr, ptr %klass.addr, align 8
  %call = call ptr @object_class_dynamic_cast_assert(ptr noundef %0, ptr noundef @.str.13, ptr noundef @.str.14, i32 noundef 77, ptr noundef @__func__.DEVICE_CLASS)
  ret ptr %call
}

; Function Attrs: nounwind sspstrong uwtable
define internal ptr @PCI_DEVICE_CLASS(ptr noundef %klass) #0 {
entry:
  %klass.addr = alloca ptr, align 8
  store ptr %klass, ptr %klass.addr, align 8
  %0 = load ptr, ptr %klass.addr, align 8
  %call = call ptr @object_class_dynamic_cast_assert(ptr noundef %0, ptr noundef @.str.69, ptr noundef @.str.70, i32 noundef 10, ptr noundef @__func__.PCI_DEVICE_CLASS)
  ret ptr %call
}

; Function Attrs: nounwind sspstrong uwtable
define dso_local void @uhci_data_class_init(ptr noundef %klass, ptr noundef %data) #0 {
entry:
  %klass.addr = alloca ptr, align 8
  %data.addr = alloca ptr, align 8
  %k = alloca ptr, align 8
  %dc = alloca ptr, align 8
  %u = alloca ptr, align 8
  %info = alloca ptr, align 8
  store ptr %klass, ptr %klass.addr, align 8
  store ptr %data, ptr %data.addr, align 8
  %0 = load ptr, ptr %klass.addr, align 8
  %call = call ptr @PCI_DEVICE_CLASS(ptr noundef %0)
  store ptr %call, ptr %k, align 8
  %1 = load ptr, ptr %klass.addr, align 8
  %call1 = call ptr @DEVICE_CLASS(ptr noundef %1)
  store ptr %call1, ptr %dc, align 8
  %2 = load ptr, ptr %klass.addr, align 8
  %call2 = call ptr @UHCI_CLASS(ptr noundef %2)
  store ptr %call2, ptr %u, align 8
  %3 = load ptr, ptr %data.addr, align 8
  store ptr %3, ptr %info, align 8
  %4 = load ptr, ptr %info, align 8
  %realize = getelementptr inbounds %struct.UHCIInfo, ptr %4, i32 0, i32 5
  %5 = load ptr, ptr %realize, align 8
  %tobool = icmp ne ptr %5, null
  br i1 %tobool, label %cond.true, label %cond.false

cond.true:                                        ; preds = %entry
  %6 = load ptr, ptr %info, align 8
  %realize3 = getelementptr inbounds %struct.UHCIInfo, ptr %6, i32 0, i32 5
  %7 = load ptr, ptr %realize3, align 8
  br label %cond.end

cond.false:                                       ; preds = %entry
  br label %cond.end

cond.end:                                         ; preds = %cond.false, %cond.true
  %cond = phi ptr [ %7, %cond.true ], [ @usb_uhci_common_realize, %cond.false ]
  %8 = load ptr, ptr %k, align 8
  %realize4 = getelementptr inbounds %struct.PCIDeviceClass, ptr %8, i32 0, i32 1
  store ptr %cond, ptr %realize4, align 8
  %9 = load ptr, ptr %info, align 8
  %unplug = getelementptr inbounds %struct.UHCIInfo, ptr %9, i32 0, i32 6
  %10 = load i8, ptr %unplug, align 8
  %tobool5 = trunc i8 %10 to i1
  %cond6 = select i1 %tobool5, ptr @usb_uhci_exit, ptr null
  %11 = load ptr, ptr %k, align 8
  %exit = getelementptr inbounds %struct.PCIDeviceClass, ptr %11, i32 0, i32 2
  store ptr %cond6, ptr %exit, align 8
  %12 = load ptr, ptr %info, align 8
  %vendor_id = getelementptr inbounds %struct.UHCIInfo, ptr %12, i32 0, i32 1
  %13 = load i16, ptr %vendor_id, align 8
  %14 = load ptr, ptr %k, align 8
  %vendor_id7 = getelementptr inbounds %struct.PCIDeviceClass, ptr %14, i32 0, i32 5
  store i16 %13, ptr %vendor_id7, align 8
  %15 = load ptr, ptr %info, align 8
  %device_id = getelementptr inbounds %struct.UHCIInfo, ptr %15, i32 0, i32 2
  %16 = load i16, ptr %device_id, align 2
  %17 = load ptr, ptr %k, align 8
  %device_id8 = getelementptr inbounds %struct.PCIDeviceClass, ptr %17, i32 0, i32 6
  store i16 %16, ptr %device_id8, align 2
  %18 = load ptr, ptr %info, align 8
  %revision = getelementptr inbounds %struct.UHCIInfo, ptr %18, i32 0, i32 3
  %19 = load i8, ptr %revision, align 4
  %20 = load ptr, ptr %k, align 8
  %revision9 = getelementptr inbounds %struct.PCIDeviceClass, ptr %20, i32 0, i32 7
  store i8 %19, ptr %revision9, align 4
  %21 = load ptr, ptr %info, align 8
  %unplug10 = getelementptr inbounds %struct.UHCIInfo, ptr %21, i32 0, i32 6
  %22 = load i8, ptr %unplug10, align 8
  %tobool11 = trunc i8 %22 to i1
  br i1 %tobool11, label %if.else, label %if.then

if.then:                                          ; preds = %cond.end
  %23 = load ptr, ptr %dc, align 8
  %hotpluggable = getelementptr inbounds %struct.DeviceClass, ptr %23, i32 0, i32 6
  store i8 0, ptr %hotpluggable, align 1
  %24 = load ptr, ptr %dc, align 8
  call void @device_class_set_props(ptr noundef %24, ptr noundef @uhci_properties_companion)
  br label %if.end

if.else:                                          ; preds = %cond.end
  %25 = load ptr, ptr %dc, align 8
  call void @device_class_set_props(ptr noundef %25, ptr noundef @uhci_properties_standalone)
  br label %if.end

if.end:                                           ; preds = %if.else, %if.then
  %26 = load ptr, ptr %info, align 8
  %notuser = getelementptr inbounds %struct.UHCIInfo, ptr %26, i32 0, i32 7
  %27 = load i8, ptr %notuser, align 1
  %tobool12 = trunc i8 %27 to i1
  br i1 %tobool12, label %if.then13, label %if.end14

if.then13:                                        ; preds = %if.end
  %28 = load ptr, ptr %dc, align 8
  %user_creatable = getelementptr inbounds %struct.DeviceClass, ptr %28, i32 0, i32 5
  store i8 0, ptr %user_creatable, align 8
  br label %if.end14

if.end14:                                         ; preds = %if.then13, %if.end
  %29 = load ptr, ptr %u, align 8
  %info15 = getelementptr inbounds %struct.UHCIPCIDeviceClass, ptr %29, i32 0, i32 1
  %30 = load ptr, ptr %info, align 8
  call void @llvm.memcpy.p0.p0.i64(ptr align 8 %info15, ptr align 8 %30, i64 32, i1 false)
  ret void
}