; Function Attrs: nounwind sspstrong uwtable
define dso_local void @uhci_data_class_init(ptr noundef %klass, ptr noundef readonly captures(none) %data) #0 {
entry:
  %call.i = tail call ptr @object_class_dynamic_cast_assert(ptr noundef %klass, ptr noundef nonnull @.str.69, ptr noundef nonnull @.str.70, i32 noundef 10, ptr noundef nonnull @__func__.PCI_DEVICE_CLASS) #11
  %call.i18 = tail call ptr @object_class_dynamic_cast_assert(ptr noundef %klass, ptr noundef nonnull @.str.13, ptr noundef nonnull @.str.14, i32 noundef 77, ptr noundef nonnull @__func__.DEVICE_CLASS) #11
  %call.i19 = tail call ptr @object_class_dynamic_cast_assert(ptr noundef %klass, ptr noundef nonnull @.str.2, ptr noundef nonnull @.str.3, i32 noundef 78, ptr noundef nonnull @__func__.UHCI_CLASS) #11
  %realize = getelementptr inbounds nuw i8, ptr %data, i64 16
  %0 = load ptr, ptr %realize, align 8
  %tobool.not = icmp eq ptr %0, null
  %spec.select = select i1 %tobool.not, ptr @usb_uhci_common_realize, ptr %0
  %realize4 = getelementptr inbounds nuw i8, ptr %call.i, i64 176
  store ptr %spec.select, ptr %realize4, align 8
  %unplug = getelementptr inbounds nuw i8, ptr %data, i64 24
  %1 = load i8, ptr %unplug, align 8
  %tobool5 = trunc i8 %1 to i1
  %cond6 = select i1 %tobool5, ptr @usb_uhci_exit, ptr null
  %exit = getelementptr inbounds nuw i8, ptr %call.i, i64 184
  store ptr %cond6, ptr %exit, align 8
  %vendor_id = getelementptr inbounds nuw i8, ptr %data, i64 8
  %2 = load i16, ptr %vendor_id, align 8
  %vendor_id7 = getelementptr inbounds nuw i8, ptr %call.i, i64 208
  store i16 %2, ptr %vendor_id7, align 8
  %device_id = getelementptr inbounds nuw i8, ptr %data, i64 10
  %3 = load i16, ptr %device_id, align 2
  %device_id8 = getelementptr inbounds nuw i8, ptr %call.i, i64 210
  store i16 %3, ptr %device_id8, align 2
  %revision = getelementptr inbounds nuw i8, ptr %data, i64 12
  %4 = load i8, ptr %revision, align 4
  %revision9 = getelementptr inbounds nuw i8, ptr %call.i, i64 212
  store i8 %4, ptr %revision9, align 4
  %5 = load i8, ptr %unplug, align 8
  %tobool11 = trunc i8 %5 to i1
  br i1 %tobool11, label %if.end, label %if.then

if.then:                                          ; preds = %entry
  %hotpluggable = getelementptr inbounds nuw i8, ptr %call.i18, i64 129
  store i8 0, ptr %hotpluggable, align 1
  br label %if.end

if.end:                                           ; preds = %entry, %if.then
  %uhci_properties_standalone.sink = phi ptr [ @uhci_properties_companion, %if.then ], [ @uhci_properties_standalone, %entry ]
  tail call void @device_class_set_props(ptr noundef %call.i18, ptr noundef nonnull %uhci_properties_standalone.sink) #11
  %notuser = getelementptr inbounds nuw i8, ptr %data, i64 25
  %6 = load i8, ptr %notuser, align 1
  %tobool12 = trunc i8 %6 to i1
  br i1 %tobool12, label %if.then13, label %if.end14

if.then13:                                        ; preds = %if.end
  %user_creatable = getelementptr inbounds nuw i8, ptr %call.i18, i64 128
  store i8 0, ptr %user_creatable, align 8
  br label %if.end14

if.end14:                                         ; preds = %if.then13, %if.end
  %info15 = getelementptr inbounds nuw i8, ptr %call.i19, i64 232
  tail call void @llvm.memcpy.p0.p0.i64(ptr noundef nonnull align 8 dereferenceable(32) %info15, ptr noundef nonnull align 8 dereferenceable(32) %data, i64 32, i1 false)
  ret void
}